
user/_forktest:     file format elf64-littleriscv


Disassembly of section .text:

0000000000000000 <print>:

#define N  1000

void
print(const char *s)
{
   0:	1101                	addi	sp,sp,-32
   2:	ec06                	sd	ra,24(sp)
   4:	e822                	sd	s0,16(sp)
   6:	e426                	sd	s1,8(sp)
   8:	1000                	addi	s0,sp,32
   a:	84aa                	mv	s1,a0
  write(1, s, strlen(s));
   c:	00000097          	auipc	ra,0x0
  10:	14e080e7          	jalr	334(ra) # 15a <strlen>
  14:	0005061b          	sext.w	a2,a0
  18:	85a6                	mv	a1,s1
  1a:	4505                	li	a0,1
  1c:	00000097          	auipc	ra,0x0
  20:	30c080e7          	jalr	780(ra) # 328 <write>
}
  24:	60e2                	ld	ra,24(sp)
  26:	6442                	ld	s0,16(sp)
  28:	64a2                	ld	s1,8(sp)
  2a:	6105                	addi	sp,sp,32
  2c:	8082                	ret

000000000000002e <forktest>:

void
forktest(void)
{
  2e:	1101                	addi	sp,sp,-32
  30:	ec06                	sd	ra,24(sp)
  32:	e822                	sd	s0,16(sp)
  34:	e426                	sd	s1,8(sp)
  36:	e04a                	sd	s2,0(sp)
  38:	1000                	addi	s0,sp,32
  int n, pid;

  print("fork test\n");
  3a:	00000517          	auipc	a0,0x0
  3e:	38e50513          	addi	a0,a0,910 # 3c8 <umount+0x8>
  42:	00000097          	auipc	ra,0x0
  46:	fbe080e7          	jalr	-66(ra) # 0 <print>

  for(n=0; n<N; n++){
  4a:	4481                	li	s1,0
  4c:	3e800913          	li	s2,1000
    pid = fork();
  50:	00000097          	auipc	ra,0x0
  54:	2b0080e7          	jalr	688(ra) # 300 <fork>
    if(pid < 0)
  58:	02054663          	bltz	a0,84 <forktest+0x56>
      break;
    if(pid == 0)
  5c:	c105                	beqz	a0,7c <forktest+0x4e>
  for(n=0; n<N; n++){
  5e:	2485                	addiw	s1,s1,1
  60:	ff2498e3          	bne	s1,s2,50 <forktest+0x22>
      exit();
  }

  if(n == N){
    print("fork claimed to work N times!\n");
  64:	00000517          	auipc	a0,0x0
  68:	37450513          	addi	a0,a0,884 # 3d8 <umount+0x18>
  6c:	00000097          	auipc	ra,0x0
  70:	f94080e7          	jalr	-108(ra) # 0 <print>
    exit();
  74:	00000097          	auipc	ra,0x0
  78:	294080e7          	jalr	660(ra) # 308 <exit>
      exit();
  7c:	00000097          	auipc	ra,0x0
  80:	28c080e7          	jalr	652(ra) # 308 <exit>
  if(n == N){
  84:	3e800793          	li	a5,1000
  88:	fcf48ee3          	beq	s1,a5,64 <forktest+0x36>
  }

  for(; n > 0; n--){
  8c:	00905a63          	blez	s1,a0 <forktest+0x72>
    if(wait() < 0){
  90:	00000097          	auipc	ra,0x0
  94:	280080e7          	jalr	640(ra) # 310 <wait>
  98:	02054963          	bltz	a0,ca <forktest+0x9c>
  for(; n > 0; n--){
  9c:	34fd                	addiw	s1,s1,-1
  9e:	f8ed                	bnez	s1,90 <forktest+0x62>
      print("wait stopped early\n");
      exit();
    }
  }

  if(wait() != -1){
  a0:	00000097          	auipc	ra,0x0
  a4:	270080e7          	jalr	624(ra) # 310 <wait>
  a8:	57fd                	li	a5,-1
  aa:	02f51c63          	bne	a0,a5,e2 <forktest+0xb4>
    print("wait got too many\n");
    exit();
  }

  print("fork test OK\n");
  ae:	00000517          	auipc	a0,0x0
  b2:	37a50513          	addi	a0,a0,890 # 428 <umount+0x68>
  b6:	00000097          	auipc	ra,0x0
  ba:	f4a080e7          	jalr	-182(ra) # 0 <print>
}
  be:	60e2                	ld	ra,24(sp)
  c0:	6442                	ld	s0,16(sp)
  c2:	64a2                	ld	s1,8(sp)
  c4:	6902                	ld	s2,0(sp)
  c6:	6105                	addi	sp,sp,32
  c8:	8082                	ret
      print("wait stopped early\n");
  ca:	00000517          	auipc	a0,0x0
  ce:	32e50513          	addi	a0,a0,814 # 3f8 <umount+0x38>
  d2:	00000097          	auipc	ra,0x0
  d6:	f2e080e7          	jalr	-210(ra) # 0 <print>
      exit();
  da:	00000097          	auipc	ra,0x0
  de:	22e080e7          	jalr	558(ra) # 308 <exit>
    print("wait got too many\n");
  e2:	00000517          	auipc	a0,0x0
  e6:	32e50513          	addi	a0,a0,814 # 410 <umount+0x50>
  ea:	00000097          	auipc	ra,0x0
  ee:	f16080e7          	jalr	-234(ra) # 0 <print>
    exit();
  f2:	00000097          	auipc	ra,0x0
  f6:	216080e7          	jalr	534(ra) # 308 <exit>

00000000000000fa <main>:

int
main(void)
{
  fa:	1141                	addi	sp,sp,-16
  fc:	e406                	sd	ra,8(sp)
  fe:	e022                	sd	s0,0(sp)
 100:	0800                	addi	s0,sp,16
  forktest();
 102:	00000097          	auipc	ra,0x0
 106:	f2c080e7          	jalr	-212(ra) # 2e <forktest>
  exit();
 10a:	00000097          	auipc	ra,0x0
 10e:	1fe080e7          	jalr	510(ra) # 308 <exit>

0000000000000112 <strcpy>:
#include "kernel/fcntl.h"
#include "user/user.h"

char*
strcpy(char *s, const char *t)
{
 112:	1141                	addi	sp,sp,-16
 114:	e422                	sd	s0,8(sp)
 116:	0800                	addi	s0,sp,16
  char *os;

  os = s;
  while((*s++ = *t++) != 0)
 118:	87aa                	mv	a5,a0
 11a:	0585                	addi	a1,a1,1
 11c:	0785                	addi	a5,a5,1
 11e:	fff5c703          	lbu	a4,-1(a1)
 122:	fee78fa3          	sb	a4,-1(a5)
 126:	fb75                	bnez	a4,11a <strcpy+0x8>
    ;
  return os;
}
 128:	6422                	ld	s0,8(sp)
 12a:	0141                	addi	sp,sp,16
 12c:	8082                	ret

000000000000012e <strcmp>:

int
strcmp(const char *p, const char *q)
{
 12e:	1141                	addi	sp,sp,-16
 130:	e422                	sd	s0,8(sp)
 132:	0800                	addi	s0,sp,16
  while(*p && *p == *q)
 134:	00054783          	lbu	a5,0(a0)
 138:	cb91                	beqz	a5,14c <strcmp+0x1e>
 13a:	0005c703          	lbu	a4,0(a1)
 13e:	00f71763          	bne	a4,a5,14c <strcmp+0x1e>
    p++, q++;
 142:	0505                	addi	a0,a0,1
 144:	0585                	addi	a1,a1,1
  while(*p && *p == *q)
 146:	00054783          	lbu	a5,0(a0)
 14a:	fbe5                	bnez	a5,13a <strcmp+0xc>
  return (uchar)*p - (uchar)*q;
 14c:	0005c503          	lbu	a0,0(a1)
}
 150:	40a7853b          	subw	a0,a5,a0
 154:	6422                	ld	s0,8(sp)
 156:	0141                	addi	sp,sp,16
 158:	8082                	ret

000000000000015a <strlen>:

uint
strlen(const char *s)
{
 15a:	1141                	addi	sp,sp,-16
 15c:	e422                	sd	s0,8(sp)
 15e:	0800                	addi	s0,sp,16
  int n;

  for(n = 0; s[n]; n++)
 160:	00054783          	lbu	a5,0(a0)
 164:	cf91                	beqz	a5,180 <strlen+0x26>
 166:	0505                	addi	a0,a0,1
 168:	87aa                	mv	a5,a0
 16a:	4685                	li	a3,1
 16c:	9e89                	subw	a3,a3,a0
 16e:	00f6853b          	addw	a0,a3,a5
 172:	0785                	addi	a5,a5,1
 174:	fff7c703          	lbu	a4,-1(a5)
 178:	fb7d                	bnez	a4,16e <strlen+0x14>
    ;
  return n;
}
 17a:	6422                	ld	s0,8(sp)
 17c:	0141                	addi	sp,sp,16
 17e:	8082                	ret
  for(n = 0; s[n]; n++)
 180:	4501                	li	a0,0
 182:	bfe5                	j	17a <strlen+0x20>

0000000000000184 <memset>:

void*
memset(void *dst, int c, uint n)
{
 184:	1141                	addi	sp,sp,-16
 186:	e422                	sd	s0,8(sp)
 188:	0800                	addi	s0,sp,16
  char *cdst = (char *) dst;
  int i;
  for(i = 0; i < n; i++){
 18a:	ce09                	beqz	a2,1a4 <memset+0x20>
 18c:	87aa                	mv	a5,a0
 18e:	fff6071b          	addiw	a4,a2,-1
 192:	1702                	slli	a4,a4,0x20
 194:	9301                	srli	a4,a4,0x20
 196:	0705                	addi	a4,a4,1
 198:	972a                	add	a4,a4,a0
    cdst[i] = c;
 19a:	00b78023          	sb	a1,0(a5)
  for(i = 0; i < n; i++){
 19e:	0785                	addi	a5,a5,1
 1a0:	fee79de3          	bne	a5,a4,19a <memset+0x16>
  }
  return dst;
}
 1a4:	6422                	ld	s0,8(sp)
 1a6:	0141                	addi	sp,sp,16
 1a8:	8082                	ret

00000000000001aa <strchr>:

char*
strchr(const char *s, char c)
{
 1aa:	1141                	addi	sp,sp,-16
 1ac:	e422                	sd	s0,8(sp)
 1ae:	0800                	addi	s0,sp,16
  for(; *s; s++)
 1b0:	00054783          	lbu	a5,0(a0)
 1b4:	cb99                	beqz	a5,1ca <strchr+0x20>
    if(*s == c)
 1b6:	00f58763          	beq	a1,a5,1c4 <strchr+0x1a>
  for(; *s; s++)
 1ba:	0505                	addi	a0,a0,1
 1bc:	00054783          	lbu	a5,0(a0)
 1c0:	fbfd                	bnez	a5,1b6 <strchr+0xc>
      return (char*)s;
  return 0;
 1c2:	4501                	li	a0,0
}
 1c4:	6422                	ld	s0,8(sp)
 1c6:	0141                	addi	sp,sp,16
 1c8:	8082                	ret
  return 0;
 1ca:	4501                	li	a0,0
 1cc:	bfe5                	j	1c4 <strchr+0x1a>

00000000000001ce <gets>:

char*
gets(char *buf, int max)
{
 1ce:	711d                	addi	sp,sp,-96
 1d0:	ec86                	sd	ra,88(sp)
 1d2:	e8a2                	sd	s0,80(sp)
 1d4:	e4a6                	sd	s1,72(sp)
 1d6:	e0ca                	sd	s2,64(sp)
 1d8:	fc4e                	sd	s3,56(sp)
 1da:	f852                	sd	s4,48(sp)
 1dc:	f456                	sd	s5,40(sp)
 1de:	f05a                	sd	s6,32(sp)
 1e0:	ec5e                	sd	s7,24(sp)
 1e2:	1080                	addi	s0,sp,96
 1e4:	8baa                	mv	s7,a0
 1e6:	8a2e                	mv	s4,a1
  int i, cc;
  char c;

  for(i=0; i+1 < max; ){
 1e8:	892a                	mv	s2,a0
 1ea:	4481                	li	s1,0
    cc = read(0, &c, 1);
    if(cc < 1)
      break;
    buf[i++] = c;
    if(c == '\n' || c == '\r')
 1ec:	4aa9                	li	s5,10
 1ee:	4b35                	li	s6,13
  for(i=0; i+1 < max; ){
 1f0:	89a6                	mv	s3,s1
 1f2:	2485                	addiw	s1,s1,1
 1f4:	0344d863          	bge	s1,s4,224 <gets+0x56>
    cc = read(0, &c, 1);
 1f8:	4605                	li	a2,1
 1fa:	faf40593          	addi	a1,s0,-81
 1fe:	4501                	li	a0,0
 200:	00000097          	auipc	ra,0x0
 204:	120080e7          	jalr	288(ra) # 320 <read>
    if(cc < 1)
 208:	00a05e63          	blez	a0,224 <gets+0x56>
    buf[i++] = c;
 20c:	faf44783          	lbu	a5,-81(s0)
 210:	00f90023          	sb	a5,0(s2)
    if(c == '\n' || c == '\r')
 214:	01578763          	beq	a5,s5,222 <gets+0x54>
 218:	0905                	addi	s2,s2,1
 21a:	fd679be3          	bne	a5,s6,1f0 <gets+0x22>
  for(i=0; i+1 < max; ){
 21e:	89a6                	mv	s3,s1
 220:	a011                	j	224 <gets+0x56>
 222:	89a6                	mv	s3,s1
      break;
  }
  buf[i] = '\0';
 224:	99de                	add	s3,s3,s7
 226:	00098023          	sb	zero,0(s3)
  return buf;
}
 22a:	855e                	mv	a0,s7
 22c:	60e6                	ld	ra,88(sp)
 22e:	6446                	ld	s0,80(sp)
 230:	64a6                	ld	s1,72(sp)
 232:	6906                	ld	s2,64(sp)
 234:	79e2                	ld	s3,56(sp)
 236:	7a42                	ld	s4,48(sp)
 238:	7aa2                	ld	s5,40(sp)
 23a:	7b02                	ld	s6,32(sp)
 23c:	6be2                	ld	s7,24(sp)
 23e:	6125                	addi	sp,sp,96
 240:	8082                	ret

0000000000000242 <stat>:

int
stat(const char *n, struct stat *st)
{
 242:	1101                	addi	sp,sp,-32
 244:	ec06                	sd	ra,24(sp)
 246:	e822                	sd	s0,16(sp)
 248:	e426                	sd	s1,8(sp)
 24a:	e04a                	sd	s2,0(sp)
 24c:	1000                	addi	s0,sp,32
 24e:	892e                	mv	s2,a1
  int fd;
  int r;

  fd = open(n, O_RDONLY);
 250:	4581                	li	a1,0
 252:	00000097          	auipc	ra,0x0
 256:	0f6080e7          	jalr	246(ra) # 348 <open>
  if(fd < 0)
 25a:	02054563          	bltz	a0,284 <stat+0x42>
 25e:	84aa                	mv	s1,a0
    return -1;
  r = fstat(fd, st);
 260:	85ca                	mv	a1,s2
 262:	00000097          	auipc	ra,0x0
 266:	0fe080e7          	jalr	254(ra) # 360 <fstat>
 26a:	892a                	mv	s2,a0
  close(fd);
 26c:	8526                	mv	a0,s1
 26e:	00000097          	auipc	ra,0x0
 272:	0c2080e7          	jalr	194(ra) # 330 <close>
  return r;
}
 276:	854a                	mv	a0,s2
 278:	60e2                	ld	ra,24(sp)
 27a:	6442                	ld	s0,16(sp)
 27c:	64a2                	ld	s1,8(sp)
 27e:	6902                	ld	s2,0(sp)
 280:	6105                	addi	sp,sp,32
 282:	8082                	ret
    return -1;
 284:	597d                	li	s2,-1
 286:	bfc5                	j	276 <stat+0x34>

0000000000000288 <atoi>:

int
atoi(const char *s)
{
 288:	1141                	addi	sp,sp,-16
 28a:	e422                	sd	s0,8(sp)
 28c:	0800                	addi	s0,sp,16
  int n;

  n = 0;
  while('0' <= *s && *s <= '9')
 28e:	00054603          	lbu	a2,0(a0)
 292:	fd06079b          	addiw	a5,a2,-48
 296:	0ff7f793          	andi	a5,a5,255
 29a:	4725                	li	a4,9
 29c:	02f76963          	bltu	a4,a5,2ce <atoi+0x46>
 2a0:	86aa                	mv	a3,a0
  n = 0;
 2a2:	4501                	li	a0,0
  while('0' <= *s && *s <= '9')
 2a4:	45a5                	li	a1,9
    n = n*10 + *s++ - '0';
 2a6:	0685                	addi	a3,a3,1
 2a8:	0025179b          	slliw	a5,a0,0x2
 2ac:	9fa9                	addw	a5,a5,a0
 2ae:	0017979b          	slliw	a5,a5,0x1
 2b2:	9fb1                	addw	a5,a5,a2
 2b4:	fd07851b          	addiw	a0,a5,-48
  while('0' <= *s && *s <= '9')
 2b8:	0006c603          	lbu	a2,0(a3)
 2bc:	fd06071b          	addiw	a4,a2,-48
 2c0:	0ff77713          	andi	a4,a4,255
 2c4:	fee5f1e3          	bgeu	a1,a4,2a6 <atoi+0x1e>
  return n;
}
 2c8:	6422                	ld	s0,8(sp)
 2ca:	0141                	addi	sp,sp,16
 2cc:	8082                	ret
  n = 0;
 2ce:	4501                	li	a0,0
 2d0:	bfe5                	j	2c8 <atoi+0x40>

00000000000002d2 <memmove>:

void*
memmove(void *vdst, const void *vsrc, int n)
{
 2d2:	1141                	addi	sp,sp,-16
 2d4:	e422                	sd	s0,8(sp)
 2d6:	0800                	addi	s0,sp,16
  char *dst;
  const char *src;

  dst = vdst;
  src = vsrc;
  while(n-- > 0)
 2d8:	02c05163          	blez	a2,2fa <memmove+0x28>
 2dc:	fff6071b          	addiw	a4,a2,-1
 2e0:	1702                	slli	a4,a4,0x20
 2e2:	9301                	srli	a4,a4,0x20
 2e4:	0705                	addi	a4,a4,1
 2e6:	972a                	add	a4,a4,a0
  dst = vdst;
 2e8:	87aa                	mv	a5,a0
    *dst++ = *src++;
 2ea:	0585                	addi	a1,a1,1
 2ec:	0785                	addi	a5,a5,1
 2ee:	fff5c683          	lbu	a3,-1(a1)
 2f2:	fed78fa3          	sb	a3,-1(a5)
  while(n-- > 0)
 2f6:	fee79ae3          	bne	a5,a4,2ea <memmove+0x18>
  return vdst;
}
 2fa:	6422                	ld	s0,8(sp)
 2fc:	0141                	addi	sp,sp,16
 2fe:	8082                	ret

0000000000000300 <fork>:
# generated by usys.pl - do not edit
#include "kernel/syscall.h"
.global fork
fork:
 li a7, SYS_fork
 300:	4885                	li	a7,1
 ecall
 302:	00000073          	ecall
 ret
 306:	8082                	ret

0000000000000308 <exit>:
.global exit
exit:
 li a7, SYS_exit
 308:	4889                	li	a7,2
 ecall
 30a:	00000073          	ecall
 ret
 30e:	8082                	ret

0000000000000310 <wait>:
.global wait
wait:
 li a7, SYS_wait
 310:	488d                	li	a7,3
 ecall
 312:	00000073          	ecall
 ret
 316:	8082                	ret

0000000000000318 <pipe>:
.global pipe
pipe:
 li a7, SYS_pipe
 318:	4891                	li	a7,4
 ecall
 31a:	00000073          	ecall
 ret
 31e:	8082                	ret

0000000000000320 <read>:
.global read
read:
 li a7, SYS_read
 320:	4895                	li	a7,5
 ecall
 322:	00000073          	ecall
 ret
 326:	8082                	ret

0000000000000328 <write>:
.global write
write:
 li a7, SYS_write
 328:	48c1                	li	a7,16
 ecall
 32a:	00000073          	ecall
 ret
 32e:	8082                	ret

0000000000000330 <close>:
.global close
close:
 li a7, SYS_close
 330:	48d5                	li	a7,21
 ecall
 332:	00000073          	ecall
 ret
 336:	8082                	ret

0000000000000338 <kill>:
.global kill
kill:
 li a7, SYS_kill
 338:	4899                	li	a7,6
 ecall
 33a:	00000073          	ecall
 ret
 33e:	8082                	ret

0000000000000340 <exec>:
.global exec
exec:
 li a7, SYS_exec
 340:	489d                	li	a7,7
 ecall
 342:	00000073          	ecall
 ret
 346:	8082                	ret

0000000000000348 <open>:
.global open
open:
 li a7, SYS_open
 348:	48bd                	li	a7,15
 ecall
 34a:	00000073          	ecall
 ret
 34e:	8082                	ret

0000000000000350 <mknod>:
.global mknod
mknod:
 li a7, SYS_mknod
 350:	48c5                	li	a7,17
 ecall
 352:	00000073          	ecall
 ret
 356:	8082                	ret

0000000000000358 <unlink>:
.global unlink
unlink:
 li a7, SYS_unlink
 358:	48c9                	li	a7,18
 ecall
 35a:	00000073          	ecall
 ret
 35e:	8082                	ret

0000000000000360 <fstat>:
.global fstat
fstat:
 li a7, SYS_fstat
 360:	48a1                	li	a7,8
 ecall
 362:	00000073          	ecall
 ret
 366:	8082                	ret

0000000000000368 <link>:
.global link
link:
 li a7, SYS_link
 368:	48cd                	li	a7,19
 ecall
 36a:	00000073          	ecall
 ret
 36e:	8082                	ret

0000000000000370 <mkdir>:
.global mkdir
mkdir:
 li a7, SYS_mkdir
 370:	48d1                	li	a7,20
 ecall
 372:	00000073          	ecall
 ret
 376:	8082                	ret

0000000000000378 <chdir>:
.global chdir
chdir:
 li a7, SYS_chdir
 378:	48a5                	li	a7,9
 ecall
 37a:	00000073          	ecall
 ret
 37e:	8082                	ret

0000000000000380 <dup>:
.global dup
dup:
 li a7, SYS_dup
 380:	48a9                	li	a7,10
 ecall
 382:	00000073          	ecall
 ret
 386:	8082                	ret

0000000000000388 <getpid>:
.global getpid
getpid:
 li a7, SYS_getpid
 388:	48ad                	li	a7,11
 ecall
 38a:	00000073          	ecall
 ret
 38e:	8082                	ret

0000000000000390 <sbrk>:
.global sbrk
sbrk:
 li a7, SYS_sbrk
 390:	48b1                	li	a7,12
 ecall
 392:	00000073          	ecall
 ret
 396:	8082                	ret

0000000000000398 <sleep>:
.global sleep
sleep:
 li a7, SYS_sleep
 398:	48b5                	li	a7,13
 ecall
 39a:	00000073          	ecall
 ret
 39e:	8082                	ret

00000000000003a0 <uptime>:
.global uptime
uptime:
 li a7, SYS_uptime
 3a0:	48b9                	li	a7,14
 ecall
 3a2:	00000073          	ecall
 ret
 3a6:	8082                	ret

00000000000003a8 <ntas>:
.global ntas
ntas:
 li a7, SYS_ntas
 3a8:	48d9                	li	a7,22
 ecall
 3aa:	00000073          	ecall
 ret
 3ae:	8082                	ret

00000000000003b0 <crash>:
.global crash
crash:
 li a7, SYS_crash
 3b0:	48dd                	li	a7,23
 ecall
 3b2:	00000073          	ecall
 ret
 3b6:	8082                	ret

00000000000003b8 <mount>:
.global mount
mount:
 li a7, SYS_mount
 3b8:	48e1                	li	a7,24
 ecall
 3ba:	00000073          	ecall
 ret
 3be:	8082                	ret

00000000000003c0 <umount>:
.global umount
umount:
 li a7, SYS_umount
 3c0:	48e5                	li	a7,25
 ecall
 3c2:	00000073          	ecall
 ret
 3c6:	8082                	ret
